target datalayout = "e-m:e-p270:32:32-p271:32:32-p272:64:64-i64:64-f80:128-n8:16:32:64-S128"
target triple = "x86_64-pc-linux-gnu"

@.str = private unnamed_addr constant [3 x i8] c"%d\00", align 1
@.str.1 = private unnamed_addr constant [3 x i8] c"%s\00", align 1
@.str.2 = private unnamed_addr constant [4 x i8] c"NO\0A\00", align 1
@.str.3 = private unnamed_addr constant [4 x i8] c"%d\0A\00", align 1
@.str.4 = private unnamed_addr constant [4 x i8] c"%s\0A\00", align 1

; Function Attrs: noinline nounwind uwtable
define dso_local void @main() #0 {
  %1 = alloca i32, align 4
  %2 = alloca [1000 x i8], align 16
  %3 = alloca [1000 x [1000 x i8]], align 16
  %4 = alloca [1000 x i32], align 16
  %5 = alloca i32, align 4
  %6 = alloca i32, align 4
  %7 = alloca i32, align 4
  %8 = alloca i32, align 4
  %9 = alloca i32, align 4
  %10 = alloca i32, align 4
  %11 = alloca i32, align 4
  %12 = bitcast [1000 x i32]* %4 to i8*
  call void @llvm.memset.p0i8.i64(i8* align 16 %12, i8 0, i64 4000, i1 false)
  store i32 0, i32* %8, align 4
  store i32 0, i32* %9, align 4
  store i32 0, i32* %10, align 4
  store i32 0, i32* %11, align 4
  %13 = call i32 (i8*, ...) @__isoc99_scanf(i8* getelementptr inbounds ([3 x i8], [3 x i8]* @.str, i64 0, i64 0), i32* %1)
  %14 = getelementptr inbounds [1000 x i8], [1000 x i8]* %2, i64 0, i64 0
  %15 = call i32 (i8*, ...) @__isoc99_scanf(i8* getelementptr inbounds ([3 x i8], [3 x i8]* @.str.1, i64 0, i64 0), i8* %14)
  %16 = getelementptr inbounds [1000 x i8], [1000 x i8]* %2, i64 0, i64 0
  %17 = call i64 @strlen(i8* %16) #4
  %18 = trunc i64 %17 to i32
  store i32 %18, i32* %5, align 4
  store i32 0, i32* %6, align 4
  br label %19

19:                                               ; preds = %57, %0
  %20 = load i32, i32* %6, align 4
  %21 = load i32, i32* %5, align 4
  %22 = load i32, i32* %1, align 4
  %23 = sub nsw i32 %21, %22
  %24 = icmp sle i32 %20, %23
  br i1 %24, label %25, label %60

25:                                               ; preds = %19
  store i32 0, i32* %9, align 4
  %26 = load i32, i32* %6, align 4
  store i32 %26, i32* %7, align 4
  br label %27

27:                                               ; preds = %45, %25
  %28 = load i32, i32* %7, align 4
  %29 = load i32, i32* %6, align 4
  %30 = load i32, i32* %1, align 4
  %31 = add nsw i32 %29, %30
  %32 = icmp slt i32 %28, %31
  br i1 %32, label %33, label %48

33:                                               ; preds = %27
  %34 = load i32, i32* %7, align 4
  %35 = sext i32 %34 to i64
  %36 = getelementptr inbounds [1000 x i8], [1000 x i8]* %2, i64 0, i64 %35
  %37 = load i8, i8* %36, align 1
  %38 = load i32, i32* %8, align 4
  %39 = sext i32 %38 to i64
  %40 = getelementptr inbounds [1000 x [1000 x i8]], [1000 x [1000 x i8]]* %3, i64 0, i64 %39
  %41 = load i32, i32* %9, align 4
  %42 = add nsw i32 %41, 1
  store i32 %42, i32* %9, align 4
  %43 = sext i32 %41 to i64
  %44 = getelementptr inbounds [1000 x i8], [1000 x i8]* %40, i64 0, i64 %43
  store i8 %37, i8* %44, align 1
  br label %45

45:                                               ; preds = %33
  %46 = load i32, i32* %7, align 4
  %47 = add nsw i32 %46, 1
  store i32 %47, i32* %7, align 4
  br label %27

48:                                               ; preds = %27
  %49 = load i32, i32* %8, align 4
  %50 = sext i32 %49 to i64
  %51 = getelementptr inbounds [1000 x [1000 x i8]], [1000 x [1000 x i8]]* %3, i64 0, i64 %50
  %52 = load i32, i32* %9, align 4
  %53 = sext i32 %52 to i64
  %54 = getelementptr inbounds [1000 x i8], [1000 x i8]* %51, i64 0, i64 %53
  store i8 0, i8* %54, align 1
  %55 = load i32, i32* %8, align 4
  %56 = add nsw i32 %55, 1
  store i32 %56, i32* %8, align 4
  br label %57

57:                                               ; preds = %48
  %58 = load i32, i32* %6, align 4
  %59 = add nsw i32 %58, 1
  store i32 %59, i32* %6, align 4
  br label %19

60:                                               ; preds = %19
  store i32 0, i32* %6, align 4
  br label %61

61:                                               ; preds = %69, %60
  %62 = load i32, i32* %6, align 4
  %63 = load i32, i32* %8, align 4
  %64 = icmp slt i32 %62, %63
  br i1 %64, label %65, label %72

65:                                               ; preds = %61
  %66 = load i32, i32* %6, align 4
  %67 = sext i32 %66 to i64
  %68 = getelementptr inbounds [1000 x i32], [1000 x i32]* %4, i64 0, i64 %67
  store i32 0, i32* %68, align 4
  br label %69

69:                                               ; preds = %65
  %70 = load i32, i32* %6, align 4
  %71 = add nsw i32 %70, 1
  store i32 %71, i32* %6, align 4
  br label %61

72:                                               ; preds = %61
  store i32 0, i32* %6, align 4
  br label %73

73:                                               ; preds = %104, %72
  %74 = load i32, i32* %6, align 4
  %75 = load i32, i32* %8, align 4
  %76 = icmp slt i32 %74, %75
  br i1 %76, label %77, label %107

77:                                               ; preds = %73
  store i32 0, i32* %7, align 4
  br label %78

78:                                               ; preds = %100, %77
  %79 = load i32, i32* %7, align 4
  %80 = load i32, i32* %8, align 4
  %81 = icmp slt i32 %79, %80
  br i1 %81, label %82, label %103

82:                                               ; preds = %78
  %83 = load i32, i32* %6, align 4
  %84 = sext i32 %83 to i64
  %85 = getelementptr inbounds [1000 x [1000 x i8]], [1000 x [1000 x i8]]* %3, i64 0, i64 %84
  %86 = getelementptr inbounds [1000 x i8], [1000 x i8]* %85, i64 0, i64 0
  %87 = load i32, i32* %7, align 4
  %88 = sext i32 %87 to i64
  %89 = getelementptr inbounds [1000 x [1000 x i8]], [1000 x [1000 x i8]]* %3, i64 0, i64 %88
  %90 = getelementptr inbounds [1000 x i8], [1000 x i8]* %89, i64 0, i64 0
  %91 = call i32 @strcmp(i8* %86, i8* %90) #4
  %92 = icmp eq i32 %91, 0
  br i1 %92, label %93, label %99

93:                                               ; preds = %82
  %94 = load i32, i32* %6, align 4
  %95 = sext i32 %94 to i64
  %96 = getelementptr inbounds [1000 x i32], [1000 x i32]* %4, i64 0, i64 %95
  %97 = load i32, i32* %96, align 4
  %98 = add nsw i32 %97, 1
  store i32 %98, i32* %96, align 4
  br label %99

99:                                               ; preds = %93, %82
  br label %100

100:                                              ; preds = %99
  %101 = load i32, i32* %7, align 4
  %102 = add nsw i32 %101, 1
  store i32 %102, i32* %7, align 4
  br label %78

103:                                              ; preds = %78
  br label %104

104:                                              ; preds = %103
  %105 = load i32, i32* %6, align 4
  %106 = add nsw i32 %105, 1
  store i32 %106, i32* %6, align 4
  br label %73

107:                                              ; preds = %73
  store i32 0, i32* %6, align 4
  br label %108

108:                                              ; preds = %125, %107
  %109 = load i32, i32* %6, align 4
  %110 = load i32, i32* %8, align 4
  %111 = icmp slt i32 %109, %110
  br i1 %111, label %112, label %128

112:                                              ; preds = %108
  %113 = load i32, i32* %6, align 4
  %114 = sext i32 %113 to i64
  %115 = getelementptr inbounds [1000 x i32], [1000 x i32]* %4, i64 0, i64 %114
  %116 = load i32, i32* %115, align 4
  %117 = load i32, i32* %10, align 4
  %118 = icmp sgt i32 %116, %117
  br i1 %118, label %119, label %124

119:                                              ; preds = %112
  %120 = load i32, i32* %6, align 4
  %121 = sext i32 %120 to i64
  %122 = getelementptr inbounds [1000 x i32], [1000 x i32]* %4, i64 0, i64 %121
  %123 = load i32, i32* %122, align 4
  store i32 %123, i32* %10, align 4
  br label %124

124:                                              ; preds = %119, %112
  br label %125

125:                                              ; preds = %124
  %126 = load i32, i32* %6, align 4
  %127 = add nsw i32 %126, 1
  store i32 %127, i32* %6, align 4
  br label %108

128:                                              ; preds = %108
  %129 = load i32, i32* %10, align 4
  %130 = icmp eq i32 %129, 1
  br i1 %130, label %131, label %133

131:                                              ; preds = %128
  %132 = call i32 (i8*, ...) @printf(i8* getelementptr inbounds ([4 x i8], [4 x i8]* @.str.2, i64 0, i64 0))
  br label %182

133:                                              ; preds = %128
  %134 = load i32, i32* %10, align 4
  %135 = call i32 (i8*, ...) @printf(i8* getelementptr inbounds ([4 x i8], [4 x i8]* @.str.3, i64 0, i64 0), i32 %134)
  store i32 0, i32* %6, align 4
  br label %136

136:                                              ; preds = %178, %133
  %137 = load i32, i32* %6, align 4
  %138 = load i32, i32* %8, align 4
  %139 = icmp slt i32 %137, %138
  br i1 %139, label %140, label %181

140:                                              ; preds = %136
  %141 = load i32, i32* %6, align 4
  %142 = sext i32 %141 to i64
  %143 = getelementptr inbounds [1000 x i32], [1000 x i32]* %4, i64 0, i64 %142
  %144 = load i32, i32* %143, align 4
  %145 = load i32, i32* %10, align 4
  %146 = icmp eq i32 %144, %145
  br i1 %146, label %147, label %177

147:                                              ; preds = %140
  %148 = load i32, i32* %6, align 4
  %149 = sext i32 %148 to i64
  %150 = getelementptr inbounds [1000 x [1000 x i8]], [1000 x [1000 x i8]]* %3, i64 0, i64 %149
  %151 = getelementptr inbounds [1000 x i8], [1000 x i8]* %150, i64 0, i64 0
  %152 = call i32 (i8*, ...) @printf(i8* getelementptr inbounds ([4 x i8], [4 x i8]* @.str.4, i64 0, i64 0), i8* %151)
  store i32 0, i32* %7, align 4
  br label %153

153:                                              ; preds = %173, %147
  %154 = load i32, i32* %7, align 4
  %155 = load i32, i32* %8, align 4
  %156 = icmp slt i32 %154, %155
  br i1 %156, label %157, label %176

157:                                              ; preds = %153
  %158 = load i32, i32* %6, align 4
  %159 = sext i32 %158 to i64
  %160 = getelementptr inbounds [1000 x [1000 x i8]], [1000 x [1000 x i8]]* %3, i64 0, i64 %159
  %161 = getelementptr inbounds [1000 x i8], [1000 x i8]* %160, i64 0, i64 0
  %162 = load i32, i32* %7, align 4
  %163 = sext i32 %162 to i64
  %164 = getelementptr inbounds [1000 x [1000 x i8]], [1000 x [1000 x i8]]* %3, i64 0, i64 %163
  %165 = getelementptr inbounds [1000 x i8], [1000 x i8]* %164, i64 0, i64 0
  %166 = call i32 @strcmp(i8* %161, i8* %165) #4
  %167 = icmp eq i32 %166, 0
  br i1 %167, label %168, label %172

168:                                              ; preds = %157
  %169 = load i32, i32* %7, align 4
  %170 = sext i32 %169 to i64
  %171 = getelementptr inbounds [1000 x i32], [1000 x i32]* %4, i64 0, i64 %170
  store i32 0, i32* %171, align 4
  br label %172

172:                                              ; preds = %168, %157
  br label %173

173:                                              ; preds = %172
  %174 = load i32, i32* %7, align 4
  %175 = add nsw i32 %174, 1
  store i32 %175, i32* %7, align 4
  br label %153

176:                                              ; preds = %153
  br label %177

177:                                              ; preds = %176, %140
  br label %178

178:                                              ; preds = %177
  %179 = load i32, i32* %6, align 4
  %180 = add nsw i32 %179, 1
  store i32 %180, i32* %6, align 4
  br label %136

181:                                              ; preds = %136
  br label %182

182:                                              ; preds = %181, %131
  ret void
}